target datalayout = "e-m:e-p270:32:32-p271:32:32-p272:64:64-i64:64-i128:128-f80:128-n8:16:32:64-S128"
target triple = "x86_64-unknown-linux-gnu"

%"struct.Assimp::MDL::Header_MDL7" = type { [4 x i8], i32, i32, i32, i32, i32, i32, i16, i16, i16, i16, i16, i16, i16, i16, i16, i16 }

@_ZTI17DeadlyImportError = linkonce_odr constant { ptr, ptr, ptr } { ptr getelementptr inbounds (ptr, ptr @_ZTVN10__cxxabiv120__si_class_type_infoE, i64 2), ptr @_ZTS17DeadlyImportError, ptr @_ZTI15DeadlyErrorBase }, comdat, align 8
@.str.65 = private unnamed_addr constant [74 x i8] c"[3DGS MDL7] sizeof(MDL::ColorValue_MDL7) != pcHeader->colorvalue_stc_size\00", align 1
@.str.66 = private unnamed_addr constant [71 x i8] c"[3DGS MDL7] sizeof(MDL::TexCoord_MDL7) != pcHeader->skinpoint_stc_size\00", align 1
@.str.67 = private unnamed_addr constant [50 x i8] c"sizeof(MDL::Skin_MDL7) != pcHeader->skin_stc_size\00", align 1
@.str.68 = private unnamed_addr constant [28 x i8] c"[3DGS MDL7] No frames found\00", align 1

; Function Attrs: mustprogress uwtable
define hidden void @_ZN6Assimp11MDLImporter24ValidateHeader_3DGS_MDL7EPKNS_3MDL11Header_MDL7E(ptr noundef nonnull align 8 dereferenceable(158) %this, ptr noundef %pcHeader) #2 align 2 personality ptr @__gxx_personality_v0 {
entry:
  %this.addr = alloca ptr, align 8
  %pcHeader.addr = alloca ptr, align 8
  %exn.slot = alloca ptr, align 8
  %ehselector.slot = alloca i32, align 4
  store ptr %this, ptr %this.addr, align 8
  store ptr %pcHeader, ptr %pcHeader.addr, align 8
  %0 = load ptr, ptr %pcHeader.addr, align 8
  %colorvalue_stc_size = getelementptr inbounds %"struct.Assimp::MDL::Header_MDL7", ptr %0, i32 0, i32 9
  %1 = load i16, ptr %colorvalue_stc_size, align 1
  %conv = zext i16 %1 to i64
  %cmp = icmp ne i64 16, %conv
  br i1 %cmp, label %if.then, label %if.end

if.then:                                          ; preds = %entry
  %exception = call ptr @__cxa_allocate_exception(i64 16) #16
  invoke void @_ZN17DeadlyImportErrorC2EPKc(ptr noundef nonnull align 8 dereferenceable(16) %exception, ptr noundef @.str.65)
          to label %invoke.cont unwind label %lpad

invoke.cont:                                      ; preds = %if.then
  call void @__cxa_throw(ptr %exception, ptr @_ZTI17DeadlyImportError, ptr @_ZN17DeadlyImportErrorD2Ev) #17
  unreachable

lpad:                                             ; preds = %if.then
  %2 = landingpad { ptr, i32 }
          cleanup
  %3 = extractvalue { ptr, i32 } %2, 0
  store ptr %3, ptr %exn.slot, align 8
  %4 = extractvalue { ptr, i32 } %2, 1
  store i32 %4, ptr %ehselector.slot, align 4
  call void @__cxa_free_exception(ptr %exception) #16
  br label %eh.resume

if.end:                                           ; preds = %entry
  %5 = load ptr, ptr %pcHeader.addr, align 8
  %skinpoint_stc_size = getelementptr inbounds %"struct.Assimp::MDL::Header_MDL7", ptr %5, i32 0, i32 11
  %6 = load i16, ptr %skinpoint_stc_size, align 1
  %conv2 = zext i16 %6 to i64
  %cmp3 = icmp ne i64 8, %conv2
  br i1 %cmp3, label %if.then4, label %if.end8

if.then4:                                         ; preds = %if.end
  %exception5 = call ptr @__cxa_allocate_exception(i64 16) #16
  invoke void @_ZN17DeadlyImportErrorC2EPKc(ptr noundef nonnull align 8 dereferenceable(16) %exception5, ptr noundef @.str.66)
          to label %invoke.cont7 unwind label %lpad6

invoke.cont7:                                     ; preds = %if.then4
  call void @__cxa_throw(ptr %exception5, ptr @_ZTI17DeadlyImportError, ptr @_ZN17DeadlyImportErrorD2Ev) #17
  unreachable

lpad6:                                            ; preds = %if.then4
  %7 = landingpad { ptr, i32 }
          cleanup
  %8 = extractvalue { ptr, i32 } %7, 0
  store ptr %8, ptr %exn.slot, align 8
  %9 = extractvalue { ptr, i32 } %7, 1
  store i32 %9, ptr %ehselector.slot, align 4
  call void @__cxa_free_exception(ptr %exception5) #16
  br label %eh.resume

if.end8:                                          ; preds = %if.end
  %10 = load ptr, ptr %pcHeader.addr, align 8
  %skin_stc_size = getelementptr inbounds %"struct.Assimp::MDL::Header_MDL7", ptr %10, i32 0, i32 8
  %11 = load i16, ptr %skin_stc_size, align 1
  %conv9 = zext i16 %11 to i64
  %cmp10 = icmp ne i64 28, %conv9
  br i1 %cmp10, label %if.then11, label %if.end15

if.then11:                                        ; preds = %if.end8
  %exception12 = call ptr @__cxa_allocate_exception(i64 16) #16
  invoke void @_ZN17DeadlyImportErrorC2EPKc(ptr noundef nonnull align 8 dereferenceable(16) %exception12, ptr noundef @.str.67)
          to label %invoke.cont14 unwind label %lpad13

invoke.cont14:                                    ; preds = %if.then11
  call void @__cxa_throw(ptr %exception12, ptr @_ZTI17DeadlyImportError, ptr @_ZN17DeadlyImportErrorD2Ev) #17
  unreachable

lpad13:                                           ; preds = %if.then11
  %12 = landingpad { ptr, i32 }
          cleanup
  %13 = extractvalue { ptr, i32 } %12, 0
  store ptr %13, ptr %exn.slot, align 8
  %14 = extractvalue { ptr, i32 } %12, 1
  store i32 %14, ptr %ehselector.slot, align 4
  call void @__cxa_free_exception(ptr %exception12) #16
  br label %eh.resume

if.end15:                                         ; preds = %if.end8
  %15 = load ptr, ptr %pcHeader.addr, align 8
  %groups_num = getelementptr inbounds %"struct.Assimp::MDL::Header_MDL7", ptr %15, i32 0, i32 3
  %16 = load i32, ptr %groups_num, align 1
  %tobool = icmp ne i32 %16, 0
  br i1 %tobool, label %if.end20, label %if.then16

if.then16:                                        ; preds = %if.end15
  %exception17 = call ptr @__cxa_allocate_exception(i64 16) #16
  invoke void @_ZN17DeadlyImportErrorC2EPKc(ptr noundef nonnull align 8 dereferenceable(16) %exception17, ptr noundef @.str.68)
          to label %invoke.cont19 unwind label %lpad18

invoke.cont19:                                    ; preds = %if.then16
  call void @__cxa_throw(ptr %exception17, ptr @_ZTI17DeadlyImportError, ptr @_ZN17DeadlyImportErrorD2Ev) #17
  unreachable

lpad18:                                           ; preds = %if.then16
  %17 = landingpad { ptr, i32 }
          cleanup
  %18 = extractvalue { ptr, i32 } %17, 0
  store ptr %18, ptr %exn.slot, align 8
  %19 = extractvalue { ptr, i32 } %17, 1
  store i32 %19, ptr %ehselector.slot, align 4
  call void @__cxa_free_exception(ptr %exception17) #16
  br label %eh.resume

if.end20:                                         ; preds = %if.end15
  ret void

eh.resume:                                        ; preds = %lpad18, %lpad13, %lpad6, %lpad
  %exn = load ptr, ptr %exn.slot, align 8
  %sel = load i32, ptr %ehselector.slot, align 4
  %lpad.val = insertvalue { ptr, i32 } poison, ptr %exn, 0
  %lpad.val21 = insertvalue { ptr, i32 } %lpad.val, i32 %sel, 1
  resume { ptr, i32 } %lpad.val21
}