; Function Attrs: mustprogress uwtable
define hidden void @_ZN6Assimp11MDLImporter24ValidateHeader_3DGS_MDL7EPKNS_3MDL11Header_MDL7E(ptr nocapture nonnull readnone align 8 %this, ptr nocapture noundef readonly %pcHeader) local_unnamed_addr #2 align 2 personality ptr @__gxx_personality_v0 {
entry:
  %colorvalue_stc_size = getelementptr inbounds i8, ptr %pcHeader, i64 32
  %0 = load i16, ptr %colorvalue_stc_size, align 1
  %cmp.not = icmp eq i16 %0, 16
  br i1 %cmp.not, label %if.end, label %if.then

if.then:                                          ; preds = %entry
  %exception = tail call ptr @__cxa_allocate_exception(i64 16) #24
  invoke void @_ZN17DeadlyImportErrorC2EPKc(ptr noundef nonnull align 8 dereferenceable(16) %exception, ptr noundef nonnull @.str.65)
          to label %invoke.cont unwind label %lpad

invoke.cont:                                      ; preds = %if.then
  tail call void @__cxa_throw(ptr nonnull %exception, ptr nonnull @_ZTI17DeadlyImportError, ptr nonnull @_ZN17DeadlyImportErrorD2Ev) #25
  unreachable

lpad:                                             ; preds = %if.then
  %1 = landingpad { ptr, i32 }
          cleanup
  br label %eh.resume

if.end:                                           ; preds = %entry
  %skinpoint_stc_size = getelementptr inbounds i8, ptr %pcHeader, i64 36
  %2 = load i16, ptr %skinpoint_stc_size, align 1
  %cmp3.not = icmp eq i16 %2, 8
  br i1 %cmp3.not, label %if.end8, label %if.then4

if.then4:                                         ; preds = %if.end
  %exception5 = tail call ptr @__cxa_allocate_exception(i64 16) #24
  invoke void @_ZN17DeadlyImportErrorC2EPKc(ptr noundef nonnull align 8 dereferenceable(16) %exception5, ptr noundef nonnull @.str.66)
          to label %invoke.cont7 unwind label %lpad6

invoke.cont7:                                     ; preds = %if.then4
  tail call void @__cxa_throw(ptr nonnull %exception5, ptr nonnull @_ZTI17DeadlyImportError, ptr nonnull @_ZN17DeadlyImportErrorD2Ev) #25
  unreachable

lpad6:                                            ; preds = %if.then4
  %3 = landingpad { ptr, i32 }
          cleanup
  br label %eh.resume

if.end8:                                          ; preds = %if.end
  %skin_stc_size = getelementptr inbounds i8, ptr %pcHeader, i64 30
  %4 = load i16, ptr %skin_stc_size, align 1
  %cmp10.not = icmp eq i16 %4, 28
  br i1 %cmp10.not, label %if.end15, label %if.then11

if.then11:                                        ; preds = %if.end8
  %exception12 = tail call ptr @__cxa_allocate_exception(i64 16) #24
  invoke void @_ZN17DeadlyImportErrorC2EPKc(ptr noundef nonnull align 8 dereferenceable(16) %exception12, ptr noundef nonnull @.str.67)
          to label %invoke.cont14 unwind label %lpad13

invoke.cont14:                                    ; preds = %if.then11
  tail call void @__cxa_throw(ptr nonnull %exception12, ptr nonnull @_ZTI17DeadlyImportError, ptr nonnull @_ZN17DeadlyImportErrorD2Ev) #25
  unreachable

lpad13:                                           ; preds = %if.then11
  %5 = landingpad { ptr, i32 }
          cleanup
  br label %eh.resume

if.end15:                                         ; preds = %if.end8
  %groups_num = getelementptr inbounds i8, ptr %pcHeader, i64 12
  %6 = load i32, ptr %groups_num, align 1
  %tobool.not = icmp eq i32 %6, 0
  br i1 %tobool.not, label %if.then16, label %if.end20

if.then16:                                        ; preds = %if.end15
  %exception17 = tail call ptr @__cxa_allocate_exception(i64 16) #24
  invoke void @_ZN17DeadlyImportErrorC2EPKc(ptr noundef nonnull align 8 dereferenceable(16) %exception17, ptr noundef nonnull @.str.68)
          to label %invoke.cont19 unwind label %lpad18

invoke.cont19:                                    ; preds = %if.then16
  tail call void @__cxa_throw(ptr nonnull %exception17, ptr nonnull @_ZTI17DeadlyImportError, ptr nonnull @_ZN17DeadlyImportErrorD2Ev) #25
  unreachable

lpad18:                                           ; preds = %if.then16
  %7 = landingpad { ptr, i32 }
          cleanup
  br label %eh.resume

if.end20:                                         ; preds = %if.end15
  ret void

eh.resume:                                        ; preds = %lpad18, %lpad13, %lpad6, %lpad
  %exception17.sink = phi ptr [ %exception17, %lpad18 ], [ %exception12, %lpad13 ], [ %exception5, %lpad6 ], [ %exception, %lpad ]
  %.pn = phi { ptr, i32 } [ %7, %lpad18 ], [ %5, %lpad13 ], [ %3, %lpad6 ], [ %1, %lpad ]
  tail call void @__cxa_free_exception(ptr %exception17.sink) #24
  resume { ptr, i32 } %.pn
}